; Function Attrs: mustprogress nofree norecurse nosync nounwind willreturn memory(read, argmem: readwrite, inaccessiblemem: none) uwtable
define internal noundef i32 @config_input_audio(ptr noundef captures(none) initializes((224, 232)) %0) #9 {
  %2 = getelementptr inbounds nuw i8, ptr %0, i64 16
  %3 = load ptr, ptr %2, align 8, !tbaa !107
  %4 = getelementptr inbounds nuw i8, ptr %3, i64 72
  %5 = load ptr, ptr %4, align 8, !tbaa !33
  %6 = getelementptr inbounds nuw i8, ptr %5, i64 12
  %7 = load i32, ptr %6, align 4, !tbaa !48
  %8 = getelementptr inbounds nuw i8, ptr %0, i64 228
  store i32 %7, ptr %8, align 4, !tbaa !49
  %9 = getelementptr inbounds nuw i8, ptr %0, i64 224
  store i32 %7, ptr %9, align 8, !tbaa !22
  ret i32 0
}